target datalayout = "e-m:e-p270:32:32-p271:32:32-p272:64:64-i64:64-i128:128-f80:128-n8:16:32:64-S128"
target triple = "x86_64-pc-linux-gnu"

%struct.ComplexMatrixN = type { i32, ptr, ptr }
%struct.Qureg = type { i32, i32, i32, i64, i64, i32, i32, %struct.ComplexArray, %struct.ComplexArray, %struct.ComplexArray, ptr, ptr, ptr, ptr, ptr, ptr }
%struct.ComplexArray = type { ptr, ptr }

; Function Attrs: nounwind uwtable
define void @densmatr_applyMultiQubitKrausSuperoperator(ptr noundef byval(%struct.Qureg) align 8 %0, ptr noundef %1, i32 noundef %2, ptr noundef byval(%struct.ComplexMatrixN) align 8 %3) #0 {
  %5 = alloca ptr, align 8
  %6 = alloca i32, align 4
  %7 = alloca i64, align 8
  %8 = alloca [200 x i32], align 16
  %9 = alloca i32, align 4
  store ptr %1, ptr %5, align 8, !tbaa !4
  store i32 %2, ptr %6, align 4, !tbaa !9
  call void @llvm.lifetime.start.p0(i64 8, ptr %7) #8
  store i64 0, ptr %7, align 8, !tbaa !11
  call void @llvm.lifetime.start.p0(i64 800, ptr %8) #8
  call void @llvm.lifetime.start.p0(i64 4, ptr %9) #8
  store i32 0, ptr %9, align 4, !tbaa !9
  br label %10

10:                                               ; preds = %37, %4
  %11 = load i32, ptr %9, align 4, !tbaa !9
  %12 = load i32, ptr %6, align 4, !tbaa !9
  %13 = icmp slt i32 %11, %12
  br i1 %13, label %15, label %14

14:                                               ; preds = %10
  call void @llvm.lifetime.end.p0(i64 4, ptr %9) #8
  br label %40

15:                                               ; preds = %10
  %16 = load ptr, ptr %5, align 8, !tbaa !4
  %17 = load i32, ptr %9, align 4, !tbaa !9
  %18 = sext i32 %17 to i64
  %19 = getelementptr inbounds i32, ptr %16, i64 %18
  %20 = load i32, ptr %19, align 4, !tbaa !9
  %21 = load i32, ptr %9, align 4, !tbaa !9
  %22 = sext i32 %21 to i64
  %23 = getelementptr inbounds [200 x i32], ptr %8, i64 0, i64 %22
  store i32 %20, ptr %23, align 4, !tbaa !9
  %24 = load ptr, ptr %5, align 8, !tbaa !4
  %25 = load i32, ptr %9, align 4, !tbaa !9
  %26 = sext i32 %25 to i64
  %27 = getelementptr inbounds i32, ptr %24, i64 %26
  %28 = load i32, ptr %27, align 4, !tbaa !9
  %29 = getelementptr inbounds nuw %struct.Qureg, ptr %0, i32 0, i32 1
  %30 = load i32, ptr %29, align 4, !tbaa !55
  %31 = add nsw i32 %28, %30
  %32 = load i32, ptr %9, align 4, !tbaa !9
  %33 = load i32, ptr %6, align 4, !tbaa !9
  %34 = add nsw i32 %32, %33
  %35 = sext i32 %34 to i64
  %36 = getelementptr inbounds [200 x i32], ptr %8, i64 0, i64 %35
  store i32 %31, ptr %36, align 4, !tbaa !9
  br label %37

37:                                               ; preds = %15
  %38 = load i32, ptr %9, align 4, !tbaa !9
  %39 = add nsw i32 %38, 1
  store i32 %39, ptr %9, align 4, !tbaa !9
  br label %10

40:                                               ; preds = %14
  %41 = load i64, ptr %7, align 8, !tbaa !11
  %42 = getelementptr inbounds [200 x i32], ptr %8, i64 0, i64 0
  %43 = load i32, ptr %6, align 4, !tbaa !9
  %44 = mul nsw i32 2, %43
  call void @statevec_multiControlledMultiQubitUnitary(ptr noundef byval(%struct.Qureg) align 8 %0, i64 noundef %41, ptr noundef %42, i32 noundef %44, ptr noundef byval(%struct.ComplexMatrixN) align 8 %3)
  call void @llvm.lifetime.end.p0(i64 800, ptr %8) #8
  call void @llvm.lifetime.end.p0(i64 8, ptr %7) #8
  ret void
}