; Function Attrs: nounwind uwtable
define void @densmatr_applyMultiQubitKrausSuperoperator(ptr noundef readonly byval(%struct.Qureg) align 8 captures(none) %0, ptr noundef readonly captures(none) %1, i32 noundef %2, ptr noundef readonly byval(%struct.ComplexMatrixN) align 8 captures(none) %3) local_unnamed_addr #11 {
  %5 = alloca [200 x i32], align 16
  call void @llvm.lifetime.start.p0(i64 800, ptr nonnull %5) #22
  %6 = icmp sgt i32 %2, 0
  br i1 %6, label %.lr.ph, label %._crit_edge

.lr.ph:                                           ; preds = %4
  %7 = getelementptr inbounds nuw i8, ptr %0, i64 4
  %8 = load i32, ptr %7, align 4, !tbaa !40
  %9 = zext nneg i32 %2 to i64
  br label %11

._crit_edge:                                      ; preds = %11, %4
  %10 = shl nsw i32 %2, 1
  call void @statevec_multiControlledMultiQubitUnitary(ptr noundef nonnull byval(%struct.Qureg) align 8 %0, i64 noundef 0, ptr noundef nonnull %5, i32 noundef %10, ptr noundef nonnull byval(%struct.ComplexMatrixN) align 8 %3) #22
  call void @llvm.lifetime.end.p0(i64 800, ptr nonnull %5) #22
  ret void

11:                                               ; preds = %.lr.ph, %11
  %indvars.iv = phi i64 [ 0, %.lr.ph ], [ %indvars.iv.next, %11 ]
  %12 = getelementptr inbounds nuw i32, ptr %1, i64 %indvars.iv
  %13 = load i32, ptr %12, align 4, !tbaa !4
  %14 = getelementptr inbounds nuw [200 x i32], ptr %5, i64 0, i64 %indvars.iv
  store i32 %13, ptr %14, align 4, !tbaa !4
  %15 = add nsw i32 %8, %13
  %16 = add nuw nsw i64 %indvars.iv, %9
  %17 = getelementptr inbounds nuw [200 x i32], ptr %5, i64 0, i64 %16
  store i32 %15, ptr %17, align 4, !tbaa !4
  %indvars.iv.next = add nuw nsw i64 %indvars.iv, 1
  %exitcond.not = icmp eq i64 %indvars.iv.next, %9
  br i1 %exitcond.not, label %._crit_edge, label %11
}